target datalayout = "e-m:e-p270:32:32-p271:32:32-p272:64:64-i64:64-i128:128-f80:128-n8:16:32:64-S128"
target triple = "x86_64-unknown-linux-gnu"

%struct.MemoryRegion = type { %struct.Object, i8, i8, i8, i8, i8, i8, i8, i8, i8, i8, ptr, ptr, ptr, ptr, ptr, ptr, i32, i128, i64, ptr, i64, i8, i8, i8, i8, i8, ptr, i64, i32, %union.anon, %union.anon.0, %union.anon.1, ptr, i32, ptr, ptr, i8 }
%struct.Object = type { ptr, ptr, ptr, i32, ptr }
%union.anon = type { %struct.QTailQLink }
%struct.QTailQLink = type { ptr, ptr }
%union.anon.0 = type { %struct.QTailQLink }
%union.anon.1 = type { %struct.QTailQLink }
%struct.VFIOPCIDevice = type { %struct.PCIDevice, %struct.VFIODevice, %struct.VFIOINTx, i32, ptr, i64, i32, i64, ptr, i32, ptr, ptr, i32, i32, [6 x %struct.VFIOBAR], ptr, ptr, %struct.PCIHostDeviceAddress, %struct.QemuUUID, %struct.EventNotifier, %struct.EventNotifier, ptr, i32, i32, i32, i32, i32, i32, i32, i32, i32, i32, i32, i8, i8, i8, i8, i8, i8, i8, i8, i8, i8, i8, i8, i8, i8, i32, i8, i8, ptr, %struct.Notifier }
%struct.PCIDevice = type { %struct.DeviceState, i8, i8, ptr, ptr, ptr, ptr, ptr, i32, %struct.PCIReqIDCache, [64 x i8], [7 x %struct.PCIIORegion], %struct.AddressSpace, %struct.MemoryRegion, %struct.MemoryRegion, ptr, ptr, [3 x ptr], i8, i8, i32, i8, i32, ptr, ptr, ptr, ptr, ptr, ptr, %struct.MemoryRegion, %struct.MemoryRegion, %struct.MemoryRegion, ptr, i8, i32, i8, %struct.PCIExpressDevice, ptr, ptr, i32, i8, %struct.MemoryRegion, i32, ptr, ptr, ptr, ptr, ptr, i32 }
%struct.DeviceState = type { %struct.Object, ptr, ptr, i8, i8, i64, ptr, i32, i8, ptr, %struct.NamedGPIOListHead, %struct.NamedClockListHead, %struct.BusStateHead, i32, i32, i32, %struct.ResettableState, ptr, %struct.MemReentrancyGuard }
%struct.NamedGPIOListHead = type { ptr }
%struct.NamedClockListHead = type { ptr }
%struct.BusStateHead = type { ptr }
%struct.ResettableState = type { i32, i8, i8 }
%struct.MemReentrancyGuard = type { i8 }
%struct.PCIReqIDCache = type { ptr, i32 }
%struct.PCIIORegion = type { i64, i64, i8, ptr, ptr }
%struct.AddressSpace = type { %struct.rcu_head, ptr, ptr, ptr, i32, i32, ptr, %union.anon.4, %union.anon.5 }
%struct.rcu_head = type { ptr, ptr }
%union.anon.4 = type { %struct.QTailQLink }
%union.anon.5 = type { %struct.QTailQLink }
%struct.PCIExpressDevice = type { i8, i8, i8, i16, %struct.PCIEAERLog, i16, i16, i16, %struct.PCIESriovPF, %struct.PCIESriovVF }
%struct.PCIEAERLog = type { i16, i16, ptr }
%struct.PCIESriovPF = type { i16, [7 x i8], ptr, ptr }
%struct.PCIESriovVF = type { ptr, i16 }
%struct.VFIODevice = type { %struct.anon.6, %struct.anon.7, %struct.anon.8, ptr, ptr, ptr, ptr, ptr, i32, i32, i8, i8, i8, i8, i32, ptr, i32, i32, i32, ptr, ptr, i32, i8, i8 }
%struct.anon.6 = type { ptr, ptr }
%struct.anon.7 = type { ptr, ptr }
%struct.anon.8 = type { ptr, ptr }
%struct.VFIOINTx = type { i8, i8, i8, %struct.EventNotifier, %struct.EventNotifier, %struct.PCIINTxRoute, i32, ptr }
%struct.PCIINTxRoute = type { i32, i32 }
%struct.VFIOBAR = type { %struct.VFIORegion, ptr, i64, i8, i8, i8, %struct.anon.9 }
%struct.VFIORegion = type { ptr, i64, ptr, i64, i32, i32, ptr, i8 }
%struct.anon.9 = type { ptr }
%struct.PCIHostDeviceAddress = type { i32, i32, i32, i32 }
%struct.QemuUUID = type { %union.anon.10 }
%union.anon.10 = type { %struct.anon.11 }
%struct.anon.11 = type { i32, i16, i16, i8, i8, [6 x i8] }
%struct.EventNotifier = type { i32, i32, i8 }
%struct.Notifier = type { ptr, %struct.anon.12 }
%struct.anon.12 = type { ptr, ptr }
%struct.VFIOMSIVector = type { %struct.EventNotifier, %struct.EventNotifier, ptr, i32, i8 }
%struct.MSIMessage = type { i64, i32 }
%struct.VFIOMSIXInfo = type { i8, i8, i16, i32, i32, ptr, i8 }
%struct.timeval = type { i64, i64 }

@trace_events_enabled_count = external global i32, align 4
@message_with_timestamp = external global i8, align 1
@qemu_loglevel = external global i32, align 4
@_TRACE_VFIO_MSIX_PBA_ENABLE_DSTATE = external global i16, align 2
@.str.35 = private unnamed_addr constant [41 x i8] c"%d@%zu.%06zu:vfio_msix_pba_enable  (%s)\0A\00", align 1
@.str.36 = private unnamed_addr constant [28 x i8] c"vfio_msix_pba_enable  (%s)\0A\00", align 1
@_TRACE_VFIO_MSI_INTERRUPT_DSTATE = external global i16, align 2
@.str.37 = private unnamed_addr constant [60 x i8] c"%d@%zu.%06zu:vfio_msi_interrupt  (%s) vector %d 0x%lx/0x%x\0A\00", align 1
@.str.38 = private unnamed_addr constant [47 x i8] c"vfio_msi_interrupt  (%s) vector %d 0x%lx/0x%x\0A\00", align 1

; Function Attrs: nounwind sspstrong uwtable
define internal zeroext i1 @qemu_loglevel_mask(i32 noundef %mask) #0 {
entry:
  %mask.addr = alloca i32, align 4
  store i32 %mask, ptr %mask.addr, align 4
  %0 = load i32, ptr @qemu_loglevel, align 4
  %1 = load i32, ptr %mask.addr, align 4
  %and = and i32 %0, %1
  %cmp = icmp ne i32 %and, 0
  ret i1 %cmp
}

; Function Attrs: nounwind sspstrong uwtable
define internal void @_nocheck__trace_vfio_msi_interrupt(ptr noundef %name, i32 noundef %index, i64 noundef %addr, i32 noundef %data) #0 {
entry:
  %name.addr = alloca ptr, align 8
  %index.addr = alloca i32, align 4
  %addr.addr = alloca i64, align 8
  %data.addr = alloca i32, align 4
  %_now = alloca %struct.timeval, align 8
  store ptr %name, ptr %name.addr, align 8
  store i32 %index, ptr %index.addr, align 4
  store i64 %addr, ptr %addr.addr, align 8
  store i32 %data, ptr %data.addr, align 4
  %0 = load i32, ptr @trace_events_enabled_count, align 4
  %tobool = icmp ne i32 %0, 0
  %lnot = xor i1 %tobool, true
  %lnot1 = xor i1 %lnot, true
  %lnot.ext = zext i1 %lnot1 to i32
  %conv = sext i32 %lnot.ext to i64
  %tobool2 = icmp ne i64 %conv, 0
  br i1 %tobool2, label %land.lhs.true, label %if.end11

land.lhs.true:                                    ; preds = %entry
  %1 = load i16, ptr @_TRACE_VFIO_MSI_INTERRUPT_DSTATE, align 2
  %conv3 = zext i16 %1 to i32
  %tobool4 = icmp ne i32 %conv3, 0
  br i1 %tobool4, label %land.lhs.true5, label %if.end11

land.lhs.true5:                                   ; preds = %land.lhs.true
  %call = call zeroext i1 @qemu_loglevel_mask(i32 noundef 32768)
  br i1 %call, label %if.then, label %if.end11

if.then:                                          ; preds = %land.lhs.true5
  %2 = load i8, ptr @message_with_timestamp, align 1
  %tobool7 = trunc i8 %2 to i1
  br i1 %tobool7, label %if.then8, label %if.else

if.then8:                                         ; preds = %if.then
  %call9 = call i32 @gettimeofday(ptr noundef %_now, ptr noundef null) #16
  %call10 = call i32 @qemu_get_thread_id()
  %tv_sec = getelementptr inbounds %struct.timeval, ptr %_now, i32 0, i32 0
  %3 = load i64, ptr %tv_sec, align 8
  %tv_usec = getelementptr inbounds %struct.timeval, ptr %_now, i32 0, i32 1
  %4 = load i64, ptr %tv_usec, align 8
  %5 = load ptr, ptr %name.addr, align 8
  %6 = load i32, ptr %index.addr, align 4
  %7 = load i64, ptr %addr.addr, align 8
  %8 = load i32, ptr %data.addr, align 4
  call void (ptr, ...) @qemu_log(ptr noundef @.str.37, i32 noundef %call10, i64 noundef %3, i64 noundef %4, ptr noundef %5, i32 noundef %6, i64 noundef %7, i32 noundef %8)
  br label %if.end

if.else:                                          ; preds = %if.then
  %9 = load ptr, ptr %name.addr, align 8
  %10 = load i32, ptr %index.addr, align 4
  %11 = load i64, ptr %addr.addr, align 8
  %12 = load i32, ptr %data.addr, align 4
  call void (ptr, ...) @qemu_log(ptr noundef @.str.38, ptr noundef %9, i32 noundef %10, i64 noundef %11, i32 noundef %12)
  br label %if.end

if.end:                                           ; preds = %if.else, %if.then8
  br label %if.end11

if.end11:                                         ; preds = %if.end, %land.lhs.true5, %land.lhs.true, %entry
  ret void
}

; Function Attrs: nounwind sspstrong uwtable
define internal void @_nocheck__trace_vfio_msix_pba_enable(ptr noundef %name) #0 {
entry:
  %name.addr = alloca ptr, align 8
  %_now = alloca %struct.timeval, align 8
  store ptr %name, ptr %name.addr, align 8
  %0 = load i32, ptr @trace_events_enabled_count, align 4
  %tobool = icmp ne i32 %0, 0
  %lnot = xor i1 %tobool, true
  %lnot1 = xor i1 %lnot, true
  %lnot.ext = zext i1 %lnot1 to i32
  %conv = sext i32 %lnot.ext to i64
  %tobool2 = icmp ne i64 %conv, 0
  br i1 %tobool2, label %land.lhs.true, label %if.end11

land.lhs.true:                                    ; preds = %entry
  %1 = load i16, ptr @_TRACE_VFIO_MSIX_PBA_ENABLE_DSTATE, align 2
  %conv3 = zext i16 %1 to i32
  %tobool4 = icmp ne i32 %conv3, 0
  br i1 %tobool4, label %land.lhs.true5, label %if.end11

land.lhs.true5:                                   ; preds = %land.lhs.true
  %call = call zeroext i1 @qemu_loglevel_mask(i32 noundef 32768)
  br i1 %call, label %if.then, label %if.end11

if.then:                                          ; preds = %land.lhs.true5
  %2 = load i8, ptr @message_with_timestamp, align 1
  %tobool7 = trunc i8 %2 to i1
  br i1 %tobool7, label %if.then8, label %if.else

if.then8:                                         ; preds = %if.then
  %call9 = call i32 @gettimeofday(ptr noundef %_now, ptr noundef null) #16
  %call10 = call i32 @qemu_get_thread_id()
  %tv_sec = getelementptr inbounds %struct.timeval, ptr %_now, i32 0, i32 0
  %3 = load i64, ptr %tv_sec, align 8
  %tv_usec = getelementptr inbounds %struct.timeval, ptr %_now, i32 0, i32 1
  %4 = load i64, ptr %tv_usec, align 8
  %5 = load ptr, ptr %name.addr, align 8
  call void (ptr, ...) @qemu_log(ptr noundef @.str.35, i32 noundef %call10, i64 noundef %3, i64 noundef %4, ptr noundef %5)
  br label %if.end

if.else:                                          ; preds = %if.then
  %6 = load ptr, ptr %name.addr, align 8
  call void (ptr, ...) @qemu_log(ptr noundef @.str.36, ptr noundef %6)
  br label %if.end

if.end:                                           ; preds = %if.else, %if.then8
  br label %if.end11

if.end11:                                         ; preds = %if.end, %land.lhs.true5, %land.lhs.true, %entry
  ret void
}

; Function Attrs: nounwind sspstrong uwtable
define internal void @trace_vfio_msi_interrupt(ptr noundef %name, i32 noundef %index, i64 noundef %addr, i32 noundef %data) #0 {
entry:
  %name.addr = alloca ptr, align 8
  %index.addr = alloca i32, align 4
  %addr.addr = alloca i64, align 8
  %data.addr = alloca i32, align 4
  store ptr %name, ptr %name.addr, align 8
  store i32 %index, ptr %index.addr, align 4
  store i64 %addr, ptr %addr.addr, align 8
  store i32 %data, ptr %data.addr, align 4
  %0 = load ptr, ptr %name.addr, align 8
  %1 = load i32, ptr %index.addr, align 4
  %2 = load i64, ptr %addr.addr, align 8
  %3 = load i32, ptr %data.addr, align 4
  call void @_nocheck__trace_vfio_msi_interrupt(ptr noundef %0, i32 noundef %1, i64 noundef %2, i32 noundef %3)
  ret void
}

; Function Attrs: nounwind sspstrong uwtable
define internal void @trace_vfio_msix_pba_enable(ptr noundef %name) #0 {
entry:
  %name.addr = alloca ptr, align 8
  store ptr %name, ptr %name.addr, align 8
  %0 = load ptr, ptr %name.addr, align 8
  call void @_nocheck__trace_vfio_msix_pba_enable(ptr noundef %0)
  ret void
}

; Function Attrs: nounwind sspstrong uwtable
define internal void @set_bit(i64 noundef %nr, ptr noundef %addr) #0 {
entry:
  %nr.addr = alloca i64, align 8
  %addr.addr = alloca ptr, align 8
  %mask = alloca i64, align 8
  %p = alloca ptr, align 8
  store i64 %nr, ptr %nr.addr, align 8
  store ptr %addr, ptr %addr.addr, align 8
  %0 = load i64, ptr %nr.addr, align 8
  %rem = urem i64 %0, 64
  %shl = shl i64 1, %rem
  store i64 %shl, ptr %mask, align 8
  %1 = load ptr, ptr %addr.addr, align 8
  %2 = load i64, ptr %nr.addr, align 8
  %div = udiv i64 %2, 64
  %add.ptr = getelementptr i64, ptr %1, i64 %div
  store ptr %add.ptr, ptr %p, align 8
  %3 = load i64, ptr %mask, align 8
  %4 = load ptr, ptr %p, align 8
  %5 = load i64, ptr %4, align 8
  %or = or i64 %5, %3
  store i64 %or, ptr %4, align 8
  ret void
}

; Function Attrs: nounwind sspstrong uwtable
define internal void @vfio_msi_interrupt(ptr noundef %opaque) #0 {
entry:
  %opaque.addr = alloca ptr, align 8
  %vector = alloca ptr, align 8
  %vdev = alloca ptr, align 8
  %get_msg = alloca ptr, align 8
  %notify = alloca ptr, align 8
  %msg = alloca %struct.MSIMessage, align 8
  %nr = alloca i32, align 4
  %tmp = alloca %struct.MSIMessage, align 8
  store ptr %opaque, ptr %opaque.addr, align 8
  %0 = load ptr, ptr %opaque.addr, align 8
  store ptr %0, ptr %vector, align 8
  %1 = load ptr, ptr %vector, align 8
  %vdev1 = getelementptr inbounds %struct.VFIOMSIVector, ptr %1, i32 0, i32 2
  %2 = load ptr, ptr %vdev1, align 8
  store ptr %2, ptr %vdev, align 8
  %3 = load ptr, ptr %vector, align 8
  %4 = load ptr, ptr %vdev, align 8
  %msi_vectors = getelementptr inbounds %struct.VFIOPCIDevice, ptr %4, i32 0, i32 10
  %5 = load ptr, ptr %msi_vectors, align 16
  %sub.ptr.lhs.cast = ptrtoint ptr %3 to i64
  %sub.ptr.rhs.cast = ptrtoint ptr %5 to i64
  %sub.ptr.sub = sub i64 %sub.ptr.lhs.cast, %sub.ptr.rhs.cast
  %sub.ptr.div = sdiv exact i64 %sub.ptr.sub, 40
  %conv = trunc i64 %sub.ptr.div to i32
  store i32 %conv, ptr %nr, align 4
  %6 = load ptr, ptr %vector, align 8
  %interrupt = getelementptr inbounds %struct.VFIOMSIVector, ptr %6, i32 0, i32 0
  %call = call i32 @event_notifier_test_and_clear(ptr noundef %interrupt)
  %tobool = icmp ne i32 %call, 0
  br i1 %tobool, label %if.end, label %if.then

if.then:                                          ; preds = %entry
  br label %return

if.end:                                           ; preds = %entry
  %7 = load ptr, ptr %vdev, align 8
  %interrupt2 = getelementptr inbounds %struct.VFIOPCIDevice, ptr %7, i32 0, i32 13
  %8 = load i32, ptr %interrupt2, align 4
  %cmp = icmp eq i32 %8, 3
  br i1 %cmp, label %if.then4, label %if.else

if.then4:                                         ; preds = %if.end
  store ptr @msix_get_message, ptr %get_msg, align 8
  store ptr @msix_notify, ptr %notify, align 8
  %9 = load ptr, ptr %vdev, align 8
  %pdev = getelementptr inbounds %struct.VFIOPCIDevice, ptr %9, i32 0, i32 0
  %10 = load i32, ptr %nr, align 4
  %call5 = call zeroext i1 @msix_is_masked(ptr noundef %pdev, i32 noundef %10)
  br i1 %call5, label %if.then6, label %if.end9

if.then6:                                         ; preds = %if.then4
  %11 = load i32, ptr %nr, align 4
  %conv7 = sext i32 %11 to i64
  %12 = load ptr, ptr %vdev, align 8
  %msix = getelementptr inbounds %struct.VFIOPCIDevice, ptr %12, i32 0, i32 11
  %13 = load ptr, ptr %msix, align 8
  %pending = getelementptr inbounds %struct.VFIOMSIXInfo, ptr %13, i32 0, i32 5
  %14 = load ptr, ptr %pending, align 8
  call void @set_bit(i64 noundef %conv7, ptr noundef %14)
  %15 = load ptr, ptr %vdev, align 8
  %pdev8 = getelementptr inbounds %struct.VFIOPCIDevice, ptr %15, i32 0, i32 0
  %msix_pba_mmio = getelementptr inbounds %struct.PCIDevice, ptr %pdev8, i32 0, i32 31
  call void @memory_region_set_enabled(ptr noundef %msix_pba_mmio, i1 noundef zeroext true)
  %16 = load ptr, ptr %vdev, align 8
  %vbasedev = getelementptr inbounds %struct.VFIOPCIDevice, ptr %16, i32 0, i32 1
  %name = getelementptr inbounds %struct.VFIODevice, ptr %vbasedev, i32 0, i32 6
  %17 = load ptr, ptr %name, align 8
  call void @trace_vfio_msix_pba_enable(ptr noundef %17)
  br label %if.end9

if.end9:                                          ; preds = %if.then6, %if.then4
  br label %if.end16

if.else:                                          ; preds = %if.end
  %18 = load ptr, ptr %vdev, align 8
  %interrupt10 = getelementptr inbounds %struct.VFIOPCIDevice, ptr %18, i32 0, i32 13
  %19 = load i32, ptr %interrupt10, align 4
  %cmp11 = icmp eq i32 %19, 2
  br i1 %cmp11, label %if.then13, label %if.else14

if.then13:                                        ; preds = %if.else
  store ptr @msi_get_message, ptr %get_msg, align 8
  store ptr @msi_notify, ptr %notify, align 8
  br label %if.end15

if.else14:                                        ; preds = %if.else
  call void @abort() #17
  unreachable

if.end15:                                         ; preds = %if.then13
  br label %if.end16

if.end16:                                         ; preds = %if.end15, %if.end9
  %20 = load ptr, ptr %get_msg, align 8
  %21 = load ptr, ptr %vdev, align 8
  %pdev17 = getelementptr inbounds %struct.VFIOPCIDevice, ptr %21, i32 0, i32 0
  %22 = load i32, ptr %nr, align 4
  %call18 = call { i64, i32 } %20(ptr noundef %pdev17, i32 noundef %22)
  %23 = getelementptr inbounds { i64, i32 }, ptr %tmp, i32 0, i32 0
  %24 = extractvalue { i64, i32 } %call18, 0
  store i64 %24, ptr %23, align 8
  %25 = getelementptr inbounds { i64, i32 }, ptr %tmp, i32 0, i32 1
  %26 = extractvalue { i64, i32 } %call18, 1
  store i32 %26, ptr %25, align 8
  call void @llvm.memcpy.p0.p0.i64(ptr align 8 %msg, ptr align 8 %tmp, i64 16, i1 false)
  %27 = load ptr, ptr %vdev, align 8
  %vbasedev19 = getelementptr inbounds %struct.VFIOPCIDevice, ptr %27, i32 0, i32 1
  %name20 = getelementptr inbounds %struct.VFIODevice, ptr %vbasedev19, i32 0, i32 6
  %28 = load ptr, ptr %name20, align 8
  %29 = load i32, ptr %nr, align 4
  %address = getelementptr inbounds %struct.MSIMessage, ptr %msg, i32 0, i32 0
  %30 = load i64, ptr %address, align 8
  %data = getelementptr inbounds %struct.MSIMessage, ptr %msg, i32 0, i32 1
  %31 = load i32, ptr %data, align 8
  call void @trace_vfio_msi_interrupt(ptr noundef %28, i32 noundef %29, i64 noundef %30, i32 noundef %31)
  %32 = load ptr, ptr %notify, align 8
  %33 = load ptr, ptr %vdev, align 8
  %pdev21 = getelementptr inbounds %struct.VFIOPCIDevice, ptr %33, i32 0, i32 0
  %34 = load i32, ptr %nr, align 4
  call void %32(ptr noundef %pdev21, i32 noundef %34)
  br label %return

return:                                           ; preds = %if.end16, %if.then
  ret void
}