; Function Attrs: nounwind sspstrong uwtable
define internal void @vfio_msi_interrupt(ptr noundef %opaque) #0 {
entry:
  %_now.i.i16 = alloca %struct.timeval, align 8
  %_now.i.i = alloca %struct.timeval, align 8
  %vdev1 = getelementptr inbounds nuw i8, ptr %opaque, i64 24
  %0 = load ptr, ptr %vdev1, align 8
  %msi_vectors = getelementptr inbounds nuw i8, ptr %0, i64 2864
  %1 = load ptr, ptr %msi_vectors, align 16
  %sub.ptr.lhs.cast = ptrtoint ptr %opaque to i64
  %sub.ptr.rhs.cast = ptrtoint ptr %1 to i64
  %sub.ptr.sub = sub i64 %sub.ptr.lhs.cast, %sub.ptr.rhs.cast
  %sub.ptr.div = sdiv exact i64 %sub.ptr.sub, 40
  %conv = trunc i64 %sub.ptr.div to i32
  %call = tail call i32 @event_notifier_test_and_clear(ptr noundef %opaque) #23
  %tobool.not = icmp eq i32 %call, 0
  br i1 %tobool.not, label %return, label %if.end

if.end:                                           ; preds = %entry
  %interrupt2 = getelementptr inbounds nuw i8, ptr %0, i64 2884
  %2 = load i32, ptr %interrupt2, align 4
  switch i32 %2, label %if.else14 [
    i32 3, label %if.then4
    i32 2, label %if.end16
  ]

if.then4:                                         ; preds = %if.end
  %call5 = tail call zeroext i1 @msix_is_masked(ptr noundef nonnull %0, i32 noundef %conv) #23
  br i1 %call5, label %if.then6, label %if.end16

if.then6:                                         ; preds = %if.then4
  %sext = shl i64 %sub.ptr.div, 32
  %conv7 = ashr exact i64 %sext, 32
  %msix = getelementptr inbounds nuw i8, ptr %0, i64 2872
  %3 = load ptr, ptr %msix, align 8
  %pending = getelementptr inbounds nuw i8, ptr %3, i64 16
  %4 = load ptr, ptr %pending, align 8
  %rem.i = and i64 %sub.ptr.div, 63
  %shl.i = shl nuw i64 1, %rem.i
  %div2.i = lshr i64 %conv7, 6
  %add.ptr.i = getelementptr i64, ptr %4, i64 %div2.i
  %5 = load i64, ptr %add.ptr.i, align 8
  %or.i = or i64 %5, %shl.i
  store i64 %or.i, ptr %add.ptr.i, align 8
  %msix_pba_mmio = getelementptr inbounds nuw i8, ptr %0, i64 1872
  tail call void @memory_region_set_enabled(ptr noundef nonnull %msix_pba_mmio, i1 noundef zeroext true) #23
  %name = getelementptr inbounds nuw i8, ptr %0, i64 2680
  %6 = load ptr, ptr %name, align 8
  call void @llvm.lifetime.start.p0(i64 16, ptr nonnull %_now.i.i)
  %7 = load i32, ptr @trace_events_enabled_count, align 4
  %tobool.i.i = icmp ne i32 %7, 0
  %8 = load i16, ptr @_TRACE_VFIO_MSIX_PBA_ENABLE_DSTATE, align 2
  %tobool4.i.i = icmp ne i16 %8, 0
  %or.cond.i.i = select i1 %tobool.i.i, i1 %tobool4.i.i, i1 false
  br i1 %or.cond.i.i, label %land.lhs.true5.i.i, label %trace_vfio_msix_pba_enable.exit

land.lhs.true5.i.i:                               ; preds = %if.then6
  %9 = load i32, ptr @qemu_loglevel, align 4
  %and.i.i.i = and i32 %9, 32768
  %cmp.i.not.i.i = icmp eq i32 %and.i.i.i, 0
  br i1 %cmp.i.not.i.i, label %trace_vfio_msix_pba_enable.exit, label %if.then.i.i

if.then.i.i:                                      ; preds = %land.lhs.true5.i.i
  %10 = load i8, ptr @message_with_timestamp, align 1
  %tobool7.i.i = trunc i8 %10 to i1
  br i1 %tobool7.i.i, label %if.then8.i.i, label %if.else.i.i

if.then8.i.i:                                     ; preds = %if.then.i.i
  %call9.i.i = call i32 @gettimeofday(ptr noundef nonnull %_now.i.i, ptr noundef null) #23
  %call10.i.i = tail call i32 @qemu_get_thread_id() #23
  %11 = load i64, ptr %_now.i.i, align 8
  %tv_usec.i.i = getelementptr inbounds nuw i8, ptr %_now.i.i, i64 8
  %12 = load i64, ptr %tv_usec.i.i, align 8
  tail call void (ptr, ...) @qemu_log(ptr noundef nonnull @.str.35, i32 noundef %call10.i.i, i64 noundef %11, i64 noundef %12, ptr noundef %6) #23
  br label %trace_vfio_msix_pba_enable.exit

if.else.i.i:                                      ; preds = %if.then.i.i
  tail call void (ptr, ...) @qemu_log(ptr noundef nonnull @.str.36, ptr noundef %6) #23
  br label %trace_vfio_msix_pba_enable.exit

trace_vfio_msix_pba_enable.exit:                  ; preds = %if.then6, %land.lhs.true5.i.i, %if.then8.i.i, %if.else.i.i
  call void @llvm.lifetime.end.p0(i64 16, ptr nonnull %_now.i.i)
  br label %if.end16

if.else14:                                        ; preds = %if.end
  tail call void @abort() #22
  unreachable

if.end16:                                         ; preds = %if.end, %if.then4, %trace_vfio_msix_pba_enable.exit
  %notify.0 = phi ptr [ @msix_notify, %trace_vfio_msix_pba_enable.exit ], [ @msix_notify, %if.then4 ], [ @msi_notify, %if.end ]
  %get_msg.0 = phi ptr [ @msix_get_message, %trace_vfio_msix_pba_enable.exit ], [ @msix_get_message, %if.then4 ], [ @msi_get_message, %if.end ]
  %call18 = tail call { i64, i32 } %get_msg.0(ptr noundef nonnull %0, i32 noundef %conv) #23, !callees !12
  %13 = extractvalue { i64, i32 } %call18, 0
  %14 = extractvalue { i64, i32 } %call18, 1
  %name20 = getelementptr inbounds nuw i8, ptr %0, i64 2680
  %15 = load ptr, ptr %name20, align 8
  call void @llvm.lifetime.start.p0(i64 16, ptr nonnull %_now.i.i16)
  %16 = load i32, ptr @trace_events_enabled_count, align 4
  %tobool.i.i17 = icmp ne i32 %16, 0
  %17 = load i16, ptr @_TRACE_VFIO_MSI_INTERRUPT_DSTATE, align 2
  %tobool4.i.i18 = icmp ne i16 %17, 0
  %or.cond.i.i19 = select i1 %tobool.i.i17, i1 %tobool4.i.i18, i1 false
  br i1 %or.cond.i.i19, label %land.lhs.true5.i.i20, label %trace_vfio_msi_interrupt.exit

land.lhs.true5.i.i20:                             ; preds = %if.end16
  %18 = load i32, ptr @qemu_loglevel, align 4
  %and.i.i.i21 = and i32 %18, 32768
  %cmp.i.not.i.i22 = icmp eq i32 %and.i.i.i21, 0
  br i1 %cmp.i.not.i.i22, label %trace_vfio_msi_interrupt.exit, label %if.then.i.i23

if.then.i.i23:                                    ; preds = %land.lhs.true5.i.i20
  %19 = load i8, ptr @message_with_timestamp, align 1
  %tobool7.i.i24 = trunc i8 %19 to i1
  br i1 %tobool7.i.i24, label %if.then8.i.i26, label %if.else.i.i25

if.then8.i.i26:                                   ; preds = %if.then.i.i23
  %call9.i.i27 = call i32 @gettimeofday(ptr noundef nonnull %_now.i.i16, ptr noundef null) #23
  %call10.i.i28 = tail call i32 @qemu_get_thread_id() #23
  %20 = load i64, ptr %_now.i.i16, align 8
  %tv_usec.i.i29 = getelementptr inbounds nuw i8, ptr %_now.i.i16, i64 8
  %21 = load i64, ptr %tv_usec.i.i29, align 8
  tail call void (ptr, ...) @qemu_log(ptr noundef nonnull @.str.37, i32 noundef %call10.i.i28, i64 noundef %20, i64 noundef %21, ptr noundef %15, i32 noundef %conv, i64 noundef %13, i32 noundef %14) #23
  br label %trace_vfio_msi_interrupt.exit

if.else.i.i25:                                    ; preds = %if.then.i.i23
  tail call void (ptr, ...) @qemu_log(ptr noundef nonnull @.str.38, ptr noundef %15, i32 noundef %conv, i64 noundef %13, i32 noundef %14) #23
  br label %trace_vfio_msi_interrupt.exit

trace_vfio_msi_interrupt.exit:                    ; preds = %if.end16, %land.lhs.true5.i.i20, %if.then8.i.i26, %if.else.i.i25
  call void @llvm.lifetime.end.p0(i64 16, ptr nonnull %_now.i.i16)
  tail call void %notify.0(ptr noundef nonnull %0, i32 noundef %conv) #23, !callees !13
  br label %return

return:                                           ; preds = %entry, %trace_vfio_msi_interrupt.exit
  ret void
}